target datalayout = "e-m:e-p270:32:32-p271:32:32-p272:64:64-i64:64-i128:128-f80:128-n8:16:32:64-S128"
target triple = "x86_64-pc-linux-gnu"

%struct.wl_list = type { ptr, ptr }
%struct.SDL_WaylandDataDevice = type { ptr, ptr, ptr, i32, ptr, ptr, ptr, i8, i8, ptr, i32, ptr }
%struct.SDL_WaylandDataOffer = type { ptr, %struct.wl_list, ptr, ptr, i32 }

@WAYLAND_wl_proxy_get_id = external global ptr, align 8
@.str.15 = private unnamed_addr constant [106 x i8] c". In wl_data_device_listener . data_device_handle_leave on data_offer 0x%08x from window %d for serial %d\00", align 1
@.str.16 = private unnamed_addr constant [91 x i8] c". In wl_data_device_listener . data_device_handle_leave on data_offer 0x%08x for serial %d\00", align 1

; Function Attrs: nounwind uwtable
define internal void @data_device_handle_leave(ptr noundef %0, ptr noundef %1) #0 {
  %3 = alloca ptr, align 8
  %4 = alloca ptr, align 8
  %5 = alloca ptr, align 8
  store ptr %0, ptr %3, align 8
  store ptr %1, ptr %4, align 8
  call void @llvm.lifetime.start.p0(i64 8, ptr %5) #10
  %6 = load ptr, ptr %3, align 8
  store ptr %6, ptr %5, align 8
  %7 = load ptr, ptr %5, align 8
  %8 = getelementptr inbounds nuw %struct.SDL_WaylandDataDevice, ptr %7, i32 0, i32 4
  %9 = load ptr, ptr %8, align 8
  %10 = icmp ne ptr %9, null
  br i1 %10, label %11, label %52

11:                                               ; preds = %2
  %12 = load ptr, ptr %5, align 8
  %13 = getelementptr inbounds nuw %struct.SDL_WaylandDataDevice, ptr %12, i32 0, i32 9
  %14 = load ptr, ptr %13, align 8
  %15 = icmp ne ptr %14, null
  br i1 %15, label %16, label %35

16:                                               ; preds = %11
  %17 = load ptr, ptr %5, align 8
  %18 = getelementptr inbounds nuw %struct.SDL_WaylandDataDevice, ptr %17, i32 0, i32 9
  %19 = load ptr, ptr %18, align 8
  %20 = call zeroext i1 @SDL_SendDropComplete(ptr noundef %19)
  %21 = load ptr, ptr @WAYLAND_wl_proxy_get_id, align 8
  %22 = load ptr, ptr %5, align 8
  %23 = getelementptr inbounds nuw %struct.SDL_WaylandDataDevice, ptr %22, i32 0, i32 4
  %24 = load ptr, ptr %23, align 8
  %25 = getelementptr inbounds nuw %struct.SDL_WaylandDataOffer, ptr %24, i32 0, i32 0
  %26 = load ptr, ptr %25, align 8
  %27 = call i32 %21(ptr noundef %26)
  %28 = load ptr, ptr %5, align 8
  %29 = getelementptr inbounds nuw %struct.SDL_WaylandDataDevice, ptr %28, i32 0, i32 9
  %30 = load ptr, ptr %29, align 8
  %31 = call i32 @SDL_GetWindowID_REAL(ptr noundef %30)
  %32 = load ptr, ptr %5, align 8
  %33 = getelementptr inbounds nuw %struct.SDL_WaylandDataDevice, ptr %32, i32 0, i32 3
  %34 = load i32, ptr %33, align 8
  call void (i32, ptr, ...) @SDL_LogTrace_REAL(i32 noundef 7, ptr noundef @.str.15, i32 noundef %27, i32 noundef %31, i32 noundef %34)
  br label %46

35:                                               ; preds = %11
  %36 = load ptr, ptr @WAYLAND_wl_proxy_get_id, align 8
  %37 = load ptr, ptr %5, align 8
  %38 = getelementptr inbounds nuw %struct.SDL_WaylandDataDevice, ptr %37, i32 0, i32 4
  %39 = load ptr, ptr %38, align 8
  %40 = getelementptr inbounds nuw %struct.SDL_WaylandDataOffer, ptr %39, i32 0, i32 0
  %41 = load ptr, ptr %40, align 8
  %42 = call i32 %36(ptr noundef %41)
  %43 = load ptr, ptr %5, align 8
  %44 = getelementptr inbounds nuw %struct.SDL_WaylandDataDevice, ptr %43, i32 0, i32 3
  %45 = load i32, ptr %44, align 8
  call void (i32, ptr, ...) @SDL_LogTrace_REAL(i32 noundef 7, ptr noundef @.str.16, i32 noundef %42, i32 noundef %45)
  br label %46

46:                                               ; preds = %35, %16
  %47 = load ptr, ptr %5, align 8
  %48 = getelementptr inbounds nuw %struct.SDL_WaylandDataDevice, ptr %47, i32 0, i32 4
  %49 = load ptr, ptr %48, align 8
  call void @Wayland_data_offer_destroy(ptr noundef %49)
  %50 = load ptr, ptr %5, align 8
  %51 = getelementptr inbounds nuw %struct.SDL_WaylandDataDevice, ptr %50, i32 0, i32 4
  store ptr null, ptr %51, align 8
  br label %53

52:                                               ; preds = %2
  call void (i32, ptr, ...) @SDL_LogTrace_REAL(i32 noundef 7, ptr noundef @.str.16, i32 noundef -1, i32 noundef -1)
  br label %53

53:                                               ; preds = %52, %46
  %54 = load ptr, ptr %5, align 8
  %55 = getelementptr inbounds nuw %struct.SDL_WaylandDataDevice, ptr %54, i32 0, i32 7
  store i8 0, ptr %55, align 8
  %56 = load ptr, ptr %5, align 8
  %57 = getelementptr inbounds nuw %struct.SDL_WaylandDataDevice, ptr %56, i32 0, i32 8
  store i8 0, ptr %57, align 1
  call void @llvm.lifetime.end.p0(i64 8, ptr %5) #10
  ret void
}