; Function Attrs: nounwind uwtable
define internal void @data_device_handle_leave(ptr noundef captures(none) initializes((56, 58)) %0, ptr readnone captures(none) %1) #0 {
  %3 = getelementptr inbounds nuw i8, ptr %0, i64 32
  %4 = load ptr, ptr %3, align 8
  %.not = icmp eq ptr %4, null
  br i1 %.not, label %26, label %5

5:                                                ; preds = %2
  %6 = getelementptr inbounds nuw i8, ptr %0, i64 64
  %7 = load ptr, ptr %6, align 8
  %.not14 = icmp eq ptr %7, null
  br i1 %.not14, label %18, label %8

8:                                                ; preds = %5
  %9 = tail call zeroext i1 @SDL_SendDropComplete(ptr noundef nonnull %7) #12
  %10 = load ptr, ptr @WAYLAND_wl_proxy_get_id, align 8
  %11 = load ptr, ptr %3, align 8
  %12 = load ptr, ptr %11, align 8
  %13 = tail call i32 %10(ptr noundef %12) #12
  %14 = load ptr, ptr %6, align 8
  %15 = tail call i32 @SDL_GetWindowID_REAL(ptr noundef %14) #12
  %16 = getelementptr inbounds nuw i8, ptr %0, i64 24
  %17 = load i32, ptr %16, align 8
  tail call void (i32, ptr, ...) @SDL_LogTrace_REAL(i32 noundef 7, ptr noundef nonnull @.str.15, i32 noundef %13, i32 noundef %15, i32 noundef %17) #12
  br label %24

18:                                               ; preds = %5
  %19 = load ptr, ptr @WAYLAND_wl_proxy_get_id, align 8
  %20 = load ptr, ptr %4, align 8
  %21 = tail call i32 %19(ptr noundef %20) #12
  %22 = getelementptr inbounds nuw i8, ptr %0, i64 24
  %23 = load i32, ptr %22, align 8
  tail call void (i32, ptr, ...) @SDL_LogTrace_REAL(i32 noundef 7, ptr noundef nonnull @.str.16, i32 noundef %21, i32 noundef %23) #12
  br label %24

24:                                               ; preds = %18, %8
  %25 = load ptr, ptr %3, align 8
  tail call void @Wayland_data_offer_destroy(ptr noundef %25) #12
  store ptr null, ptr %3, align 8
  br label %27

26:                                               ; preds = %2
  tail call void (i32, ptr, ...) @SDL_LogTrace_REAL(i32 noundef 7, ptr noundef nonnull @.str.16, i32 noundef -1, i32 noundef -1) #12
  br label %27

27:                                               ; preds = %26, %24
  %28 = getelementptr inbounds nuw i8, ptr %0, i64 56
  store i8 0, ptr %28, align 8
  %29 = getelementptr inbounds nuw i8, ptr %0, i64 57
  store i8 0, ptr %29, align 1
  ret void
}